; ModuleID = '55/964.c'
source_filename = "55/964.c"
target datalayout = "e-m:e-p270:32:32-p271:32:32-p272:64:64-i64:64-f80:128-n8:16:32:64-S128"
target triple = "x86_64-pc-linux-gnu"

@.str = private unnamed_addr constant [9 x i8] c"%d %s %d\00", align 1
@.str.1 = private unnamed_addr constant [4 x i8] c"%s\0A\00", align 1

; Function Attrs: noinline nounwind uwtable
define dso_local i32 @main() #0 {
  %1 = alloca i32, align 4
  %2 = alloca [100 x i8], align 16
  %3 = alloca [100 x i8], align 16
  %4 = alloca [100 x i32], align 16
  %5 = alloca [100 x i32], align 16
  %6 = alloca i32, align 4
  %7 = alloca i32, align 4
  %8 = alloca i32, align 4
  %9 = alloca i32, align 4
  %10 = alloca i32, align 4
  %11 = alloca i32, align 4
  %12 = alloca i32, align 4
  store i32 0, i32* %1, align 4
  store i32 0, i32* %6, align 4
  store i32 1, i32* %12, align 4
  %13 = getelementptr inbounds [100 x i8], [100 x i8]* %2, i64 0, i64 0
  %14 = call i32 (i8*, ...) @__isoc99_scanf(i8* getelementptr inbounds ([9 x i8], [9 x i8]* @.str, i64 0, i64 0), i32* %7, i8* %13, i32* %8)
  %15 = getelementptr inbounds [100 x i8], [100 x i8]* %2, i64 0, i64 0
  %16 = call i64 @strlen(i8* %15) #3
  %17 = trunc i64 %16 to i32
  store i32 %17, i32* %11, align 4
  store i32 0, i32* %9, align 4
  br label %18

18:                                               ; preds = %97, %0
  %19 = load i32, i32* %9, align 4
  %20 = load i32, i32* %11, align 4
  %21 = icmp slt i32 %19, %20
  br i1 %21, label %22, label %100

22:                                               ; preds = %18
  %23 = load i32, i32* %9, align 4
  %24 = sext i32 %23 to i64
  %25 = getelementptr inbounds [100 x i8], [100 x i8]* %2, i64 0, i64 %24
  %26 = load i8, i8* %25, align 1
  %27 = sext i8 %26 to i32
  %28 = icmp sge i32 %27, 65
  br i1 %28, label %29, label %47

29:                                               ; preds = %22
  %30 = load i32, i32* %9, align 4
  %31 = sext i32 %30 to i64
  %32 = getelementptr inbounds [100 x i8], [100 x i8]* %2, i64 0, i64 %31
  %33 = load i8, i8* %32, align 1
  %34 = sext i8 %33 to i32
  %35 = icmp sle i32 %34, 90
  br i1 %35, label %36, label %47

36:                                               ; preds = %29
  %37 = load i32, i32* %9, align 4
  %38 = sext i32 %37 to i64
  %39 = getelementptr inbounds [100 x i8], [100 x i8]* %2, i64 0, i64 %38
  %40 = load i8, i8* %39, align 1
  %41 = sext i8 %40 to i32
  %42 = sub nsw i32 %41, 65
  %43 = add nsw i32 %42, 10
  %44 = load i32, i32* %9, align 4
  %45 = sext i32 %44 to i64
  %46 = getelementptr inbounds [100 x i32], [100 x i32]* %4, i64 0, i64 %45
  store i32 %43, i32* %46, align 4
  br label %47

47:                                               ; preds = %36, %29, %22
  %48 = load i32, i32* %9, align 4
  %49 = sext i32 %48 to i64
  %50 = getelementptr inbounds [100 x i8], [100 x i8]* %2, i64 0, i64 %49
  %51 = load i8, i8* %50, align 1
  %52 = sext i8 %51 to i32
  %53 = icmp sge i32 %52, 97
  br i1 %53, label %54, label %72

54:                                               ; preds = %47
  %55 = load i32, i32* %9, align 4
  %56 = sext i32 %55 to i64
  %57 = getelementptr inbounds [100 x i8], [100 x i8]* %2, i64 0, i64 %56
  %58 = load i8, i8* %57, align 1
  %59 = sext i8 %58 to i32
  %60 = icmp sle i32 %59, 122
  br i1 %60, label %61, label %72

61:                                               ; preds = %54
  %62 = load i32, i32* %9, align 4
  %63 = sext i32 %62 to i64
  %64 = getelementptr inbounds [100 x i8], [100 x i8]* %2, i64 0, i64 %63
  %65 = load i8, i8* %64, align 1
  %66 = sext i8 %65 to i32
  %67 = sub nsw i32 %66, 97
  %68 = add nsw i32 %67, 10
  %69 = load i32, i32* %9, align 4
  %70 = sext i32 %69 to i64
  %71 = getelementptr inbounds [100 x i32], [100 x i32]* %4, i64 0, i64 %70
  store i32 %68, i32* %71, align 4
  br label %72

72:                                               ; preds = %61, %54, %47
  %73 = load i32, i32* %9, align 4
  %74 = sext i32 %73 to i64
  %75 = getelementptr inbounds [100 x i8], [100 x i8]* %2, i64 0, i64 %74
  %76 = load i8, i8* %75, align 1
  %77 = sext i8 %76 to i32
  %78 = icmp sge i32 %77, 48
  br i1 %78, label %79, label %96

79:                                               ; preds = %72
  %80 = load i32, i32* %9, align 4
  %81 = sext i32 %80 to i64
  %82 = getelementptr inbounds [100 x i8], [100 x i8]* %2, i64 0, i64 %81
  %83 = load i8, i8* %82, align 1
  %84 = sext i8 %83 to i32
  %85 = icmp sle i32 %84, 57
  br i1 %85, label %86, label %96

86:                                               ; preds = %79
  %87 = load i32, i32* %9, align 4
  %88 = sext i32 %87 to i64
  %89 = getelementptr inbounds [100 x i8], [100 x i8]* %2, i64 0, i64 %88
  %90 = load i8, i8* %89, align 1
  %91 = sext i8 %90 to i32
  %92 = sub nsw i32 %91, 48
  %93 = load i32, i32* %9, align 4
  %94 = sext i32 %93 to i64
  %95 = getelementptr inbounds [100 x i32], [100 x i32]* %4, i64 0, i64 %94
  store i32 %92, i32* %95, align 4
  br label %96

96:                                               ; preds = %86, %79, %72
  br label %97

97:                                               ; preds = %96
  %98 = load i32, i32* %9, align 4
  %99 = add nsw i32 %98, 1
  store i32 %99, i32* %9, align 4
  br label %18

100:                                              ; preds = %18
  store i32 0, i32* %9, align 4
  br label %101

101:                                              ; preds = %129, %100
  %102 = load i32, i32* %9, align 4
  %103 = load i32, i32* %11, align 4
  %104 = icmp slt i32 %102, %103
  br i1 %104, label %105, label %132

105:                                              ; preds = %101
  store i32 1, i32* %12, align 4
  store i32 0, i32* %10, align 4
  br label %106

106:                                              ; preds = %114, %105
  %107 = load i32, i32* %10, align 4
  %108 = load i32, i32* %9, align 4
  %109 = icmp slt i32 %107, %108
  br i1 %109, label %110, label %117

110:                                              ; preds = %106
  %111 = load i32, i32* %7, align 4
  %112 = load i32, i32* %12, align 4
  %113 = mul nsw i32 %112, %111
  store i32 %113, i32* %12, align 4
  br label %114

114:                                              ; preds = %110
  %115 = load i32, i32* %10, align 4
  %116 = add nsw i32 %115, 1
  store i32 %116, i32* %10, align 4
  br label %106

117:                                              ; preds = %106
  %118 = load i32, i32* %6, align 4
  %119 = load i32, i32* %11, align 4
  %120 = sub nsw i32 %119, 1
  %121 = load i32, i32* %9, align 4
  %122 = sub nsw i32 %120, %121
  %123 = sext i32 %122 to i64
  %124 = getelementptr inbounds [100 x i32], [100 x i32]* %4, i64 0, i64 %123
  %125 = load i32, i32* %124, align 4
  %126 = load i32, i32* %12, align 4
  %127 = mul nsw i32 %125, %126
  %128 = add nsw i32 %118, %127
  store i32 %128, i32* %6, align 4
  br label %129

129:                                              ; preds = %117
  %130 = load i32, i32* %9, align 4
  %131 = add nsw i32 %130, 1
  store i32 %131, i32* %9, align 4
  br label %101

132:                                              ; preds = %101
  store i32 0, i32* %9, align 4
  br label %133

133:                                              ; preds = %152, %132
  %134 = load i32, i32* %9, align 4
  %135 = icmp slt i32 %134, 100
  br i1 %135, label %136, label %155

136:                                              ; preds = %133
  %137 = load i32, i32* %6, align 4
  %138 = load i32, i32* %8, align 4
  %139 = srem i32 %137, %138
  %140 = load i32, i32* %9, align 4
  %141 = sext i32 %140 to i64
  %142 = getelementptr inbounds [100 x i32], [100 x i32]* %5, i64 0, i64 %141
  store i32 %139, i32* %142, align 4
  %143 = load i32, i32* %6, align 4
  %144 = load i32, i32* %8, align 4
  %145 = sdiv i32 %143, %144
  %146 = icmp eq i32 %145, 0
  br i1 %146, label %147, label %148

147:                                              ; preds = %136
  br label %155

148:                                              ; preds = %136
  %149 = load i32, i32* %6, align 4
  %150 = load i32, i32* %8, align 4
  %151 = sdiv i32 %149, %150
  store i32 %151, i32* %6, align 4
  br label %152

152:                                              ; preds = %148
  %153 = load i32, i32* %9, align 4
  %154 = add nsw i32 %153, 1
  store i32 %154, i32* %9, align 4
  br label %133

155:                                              ; preds = %147, %133
  %156 = load i32, i32* %9, align 4
  %157 = add nsw i32 %156, 1
  store i32 %157, i32* %10, align 4
  %158 = load i32, i32* %10, align 4
  %159 = sub nsw i32 %158, 1
  store i32 %159, i32* %9, align 4
  br label %160

160:                                              ; preds = %215, %155
  %161 = load i32, i32* %9, align 4
  %162 = icmp sge i32 %161, 0
  br i1 %162, label %163, label %218

163:                                              ; preds = %160
  %164 = load i32, i32* %9, align 4
  %165 = sext i32 %164 to i64
  %166 = getelementptr inbounds [100 x i32], [100 x i32]* %5, i64 0, i64 %165
  %167 = load i32, i32* %166, align 4
  %168 = icmp sge i32 %167, 0
  br i1 %168, label %169, label %188

169:                                              ; preds = %163
  %170 = load i32, i32* %9, align 4
  %171 = sext i32 %170 to i64
  %172 = getelementptr inbounds [100 x i32], [100 x i32]* %5, i64 0, i64 %171
  %173 = load i32, i32* %172, align 4
  %174 = icmp sle i32 %173, 9
  br i1 %174, label %175, label %188

175:                                              ; preds = %169
  %176 = load i32, i32* %9, align 4
  %177 = sext i32 %176 to i64
  %178 = getelementptr inbounds [100 x i32], [100 x i32]* %5, i64 0, i64 %177
  %179 = load i32, i32* %178, align 4
  %180 = add nsw i32 %179, 48
  %181 = trunc i32 %180 to i8
  %182 = load i32, i32* %10, align 4
  %183 = load i32, i32* %9, align 4
  %184 = sub nsw i32 %182, %183
  %185 = sub nsw i32 %184, 1
  %186 = sext i32 %185 to i64
  %187 = getelementptr inbounds [100 x i8], [100 x i8]* %3, i64 0, i64 %186
  store i8 %181, i8* %187, align 1
  br label %188

188:                                              ; preds = %175, %169, %163
  %189 = load i32, i32* %9, align 4
  %190 = sext i32 %189 to i64
  %191 = getelementptr inbounds [100 x i32], [100 x i32]* %5, i64 0, i64 %190
  %192 = load i32, i32* %191, align 4
  %193 = icmp sge i32 %192, 10
  br i1 %193, label %194, label %214

194:                                              ; preds = %188
  %195 = load i32, i32* %9, align 4
  %196 = sext i32 %195 to i64
  %197 = getelementptr inbounds [100 x i32], [100 x i32]* %5, i64 0, i64 %196
  %198 = load i32, i32* %197, align 4
  %199 = icmp sle i32 %198, 35
  br i1 %199, label %200, label %214

200:                                              ; preds = %194
  %201 = load i32, i32* %9, align 4
  %202 = sext i32 %201 to i64
  %203 = getelementptr inbounds [100 x i32], [100 x i32]* %5, i64 0, i64 %202
  %204 = load i32, i32* %203, align 4
  %205 = add nsw i32 %204, 65
  %206 = sub nsw i32 %205, 10
  %207 = trunc i32 %206 to i8
  %208 = load i32, i32* %10, align 4
  %209 = load i32, i32* %9, align 4
  %210 = sub nsw i32 %208, %209
  %211 = sub nsw i32 %210, 1
  %212 = sext i32 %211 to i64
  %213 = getelementptr inbounds [100 x i8], [100 x i8]* %3, i64 0, i64 %212
  store i8 %207, i8* %213, align 1
  br label %214

214:                                              ; preds = %200, %194, %188
  br label %215

215:                                              ; preds = %214
  %216 = load i32, i32* %9, align 4
  %217 = add nsw i32 %216, -1
  store i32 %217, i32* %9, align 4
  br label %160

218:                                              ; preds = %160
  %219 = load i32, i32* %10, align 4
  %220 = sext i32 %219 to i64
  %221 = getelementptr inbounds [100 x i8], [100 x i8]* %3, i64 0, i64 %220
  store i8 0, i8* %221, align 1
  %222 = getelementptr inbounds [100 x i8], [100 x i8]* %3, i64 0, i64 0
  %223 = call i32 (i8*, ...) @printf(i8* getelementptr inbounds ([4 x i8], [4 x i8]* @.str.1, i64 0, i64 0), i8* %222)
  ret i32 0
}

declare dso_local i32 @__isoc99_scanf(i8*, ...) #1

; Function Attrs: nounwind readonly
declare dso_local i64 @strlen(i8*) #2

declare dso_local i32 @printf(i8*, ...) #1


!llvm.module.flags = !{!0}
!llvm.ident = !{!1}

!0 = !{i32 1, !"wchar_size", i32 4}
!1 = !{!"clang version 10.0.0-4ubuntu1 "}
